target datalayout = "e-m:e-p270:32:32-p271:32:32-p272:64:64-i64:64-i128:128-f80:128-n8:16:32:64-S128"
target triple = "x86_64-pc-linux-gnu"

%class.LogTagSet = type { ptr, i64, [5 x i32], [4 x i8], %class.LogOutputList, %class.LogDecorators, ptr }
%class.LogOutputList = type <{ [6 x ptr], i32, [4 x i8] }>
%class.LogDecorators = type { i32 }
%class.XRelocationSetSelectorGroupStats = type { i64, i64, i64, i64, i64, i64 }
%class.XRelocationSetSelectorGroup = type { ptr, i8, i64, i64, i64, %class.GrowableArrayCHeap, i64, %class.XRelocationSetSelectorGroupStats }
%class.GrowableArrayCHeap = type { %class.GrowableArrayWithAllocator }
%class.GrowableArrayWithAllocator = type { %class.GrowableArrayView }
%class.GrowableArrayView = type { %class.GrowableArrayBase, ptr }
%class.GrowableArrayBase = type { i32, i32 }
%class.XPage = type { i8, i8, i32, %class.XVirtualMemory, i64, %class.XLiveMap, i64, %class.XPhysicalMemory, %class.XListNode }
%class.XVirtualMemory = type { i64, i64 }
%class.XLiveMap = type { i32, i32, i64, i64, i64, %class.XBitMap, i64 }
%class.XBitMap = type { %class.CHeapBitMap.base, [7 x i8] }
%class.CHeapBitMap.base = type <{ %class.GrowableBitMap, i8 }>
%class.GrowableBitMap = type { %class.BitMap }
%class.BitMap = type { ptr, i64 }
%class.XPhysicalMemory = type { %class.GrowableArrayCHeap.0 }
%class.GrowableArrayCHeap.0 = type { %class.GrowableArrayWithAllocator.1 }
%class.GrowableArrayWithAllocator.1 = type { %class.GrowableArrayView.2 }
%class.GrowableArrayView.2 = type { %class.GrowableArrayBase, ptr }
%class.XListNode = type { ptr, ptr }

@ZFragmentationLimit = external global double, align 8
@.str = private unnamed_addr constant [105 x i8] c"Candidate Relocation Set (%s Pages): %d->%d, %.1f%% relative defragmentation, %lu forwarding entries, %s\00", align 1
@.str.4 = private unnamed_addr constant [9 x i8] c"Selected\00", align 1
@.str.5 = private unnamed_addr constant [9 x i8] c"Rejected\00", align 1
@.str.6 = private unnamed_addr constant [70 x i8] c"Relocation Set (%s Pages): %d->%d, %d skipped, %lu forwarding entries\00", align 1
@_ZN16LogTagSetMappingILN6LogTag4typeE49ELS1_129ELS1_0ELS1_0ELS1_0ELS1_0EE7_tagsetE = linkonce_odr hidden global %class.LogTagSet zeroinitializer, comdat, align 8

; Function Attrs: mustprogress nounwind uwtable
define linkonce_odr hidden noundef i32 @_ZN21CountLeadingZerosImplIjLm4EE4doitEj(i32 noundef %0) #1 comdat align 2 {
  %2 = alloca i32, align 4
  store i32 %0, ptr %2, align 4
  %3 = load i32, ptr %2, align 4
  %4 = call i32 @llvm.ctlz.i32(i32 %3, i1 true)
  ret i32 %4
}

; Function Attrs: mustprogress nounwind uwtable
define linkonce_odr hidden noundef i32 @_Z19count_leading_zerosIjEjT_(i32 noundef %0) #1 comdat {
  %2 = alloca i32, align 4
  store i32 %0, ptr %2, align 4
  %3 = load i32, ptr %2, align 4
  %4 = call noundef i32 @_ZN21CountLeadingZerosImplIjLm4EE4doitEj(i32 noundef %3)
  ret i32 %4
}

; Function Attrs: mustprogress nounwind uwtable
define linkonce_odr hidden noundef zeroext i1 @_ZNK13LogOutputList8is_levelEN8LogLevel4typeE(ptr noundef nonnull align 8 dereferenceable(52) %0, i32 noundef %1) #1 comdat align 2 {
  %3 = alloca ptr, align 8
  %4 = alloca i32, align 4
  store ptr %0, ptr %3, align 8
  store i32 %1, ptr %4, align 4
  %5 = load ptr, ptr %3, align 8
  %6 = getelementptr inbounds %class.LogOutputList, ptr %5, i32 0, i32 0
  %7 = load i32, ptr %4, align 4
  %8 = zext i32 %7 to i64
  %9 = getelementptr inbounds [6 x ptr], ptr %6, i64 0, i64 %8
  %10 = load volatile ptr, ptr %9, align 8
  %11 = icmp ne ptr %10, null
  ret i1 %11
}

; Function Attrs: mustprogress nounwind uwtable
define linkonce_odr hidden noundef i32 @_Z5log2iIjTnNSt9enable_ifIXcvbsr3std11is_integralIT_EE5valueEiE4typeELi0EEiS1_(i32 noundef %0) #1 comdat {
  %2 = alloca i32, align 4
  %3 = alloca i32, align 4
  store i32 %0, ptr %2, align 4
  store i32 32, ptr %3, align 4
  %4 = load i32, ptr %2, align 4
  %5 = call noundef i32 @_Z19count_leading_zerosIjEjT_(i32 noundef %4)
  %6 = sub i32 32, %5
  %7 = sub i32 %6, 1
  ret i32 %7
}

; Function Attrs: mustprogress nounwind uwtable
define linkonce_odr hidden noundef zeroext i1 @_Z13is_power_of_2IjTnNSt9enable_ifIXcvbsr3std11is_integralIT_EE5valueEiE4typeELi0EEbS1_(i32 noundef %0) #1 comdat {
  %2 = alloca i32, align 4
  store i32 %0, ptr %2, align 4
  %3 = load i32, ptr %2, align 4
  %4 = icmp ugt i32 %3, 0
  br i1 %4, label %5, label %11

5:                                                ; preds = %1
  %6 = load i32, ptr %2, align 4
  %7 = load i32, ptr %2, align 4
  %8 = sub i32 %7, 1
  %9 = and i32 %6, %8
  %10 = icmp eq i32 %9, 0
  br label %11

11:                                               ; preds = %5, %1
  %12 = phi i1 [ false, %1 ], [ %10, %5 ]
  ret i1 %12
}

; Function Attrs: mustprogress nounwind uwtable
define linkonce_odr hidden noundef i32 @_ZNK8XLiveMap12live_objectsEv(ptr noundef nonnull align 8 dereferenceable(64) %0) #1 comdat align 2 {
  %2 = alloca ptr, align 8
  store ptr %0, ptr %2, align 8
  %3 = load ptr, ptr %2, align 8
  %4 = getelementptr inbounds %class.XLiveMap, ptr %3, i32 0, i32 1
  %5 = load volatile i32, ptr %4, align 4
  ret i32 %5
}

; Function Attrs: mustprogress nounwind uwtable
define linkonce_odr hidden noundef zeroext i1 @_ZNK9LogTagSet8is_levelEN8LogLevel4typeE(ptr noundef nonnull align 8 dereferenceable(112) %0, i32 noundef %1) #1 comdat align 2 {
  %3 = alloca ptr, align 8
  %4 = alloca i32, align 4
  store ptr %0, ptr %3, align 8
  store i32 %1, ptr %4, align 4
  %5 = load ptr, ptr %3, align 8
  %6 = getelementptr inbounds %class.LogTagSet, ptr %5, i32 0, i32 4
  %7 = load i32, ptr %4, align 4
  %8 = call noundef zeroext i1 @_ZNK13LogOutputList8is_levelEN8LogLevel4typeE(ptr noundef nonnull align 8 dereferenceable(52) %6, i32 noundef %7)
  ret i1 %8
}

; Function Attrs: mustprogress nounwind uwtable
define linkonce_odr hidden noundef nonnull align 8 dereferenceable(112) ptr @_ZN16LogTagSetMappingILN6LogTag4typeE49ELS1_129ELS1_0ELS1_0ELS1_0ELS1_0EE6tagsetEv() #1 comdat align 2 {
  ret ptr @_ZN16LogTagSetMappingILN6LogTag4typeE49ELS1_129ELS1_0ELS1_0ELS1_0ELS1_0EE7_tagsetE
}

; Function Attrs: mustprogress nounwind uwtable
define linkonce_odr hidden noundef i32 @_Z19round_up_power_of_2IjTnNSt9enable_ifIXcvbsr3std11is_integralIT_EE5valueEiE4typeELi0EES1_S1_(i32 noundef %0) #1 comdat {
  %2 = alloca i32, align 4
  %3 = alloca i32, align 4
  store i32 %0, ptr %3, align 4
  %4 = load i32, ptr %3, align 4
  %5 = call noundef zeroext i1 @_Z13is_power_of_2IjTnNSt9enable_ifIXcvbsr3std11is_integralIT_EE5valueEiE4typeELi0EEbS1_(i32 noundef %4)
  br i1 %5, label %6, label %8

6:                                                ; preds = %1
  %7 = load i32, ptr %3, align 4
  store i32 %7, ptr %2, align 4
  br label %13

8:                                                ; preds = %1
  %9 = load i32, ptr %3, align 4
  %10 = call noundef i32 @_Z5log2iIjTnNSt9enable_ifIXcvbsr3std11is_integralIT_EE5valueEiE4typeELi0EEiS1_(i32 noundef %9)
  %11 = add nsw i32 %10, 1
  %12 = shl i32 1, %11
  store i32 %12, ptr %2, align 4
  br label %13

13:                                               ; preds = %8, %6
  %14 = load i32, ptr %2, align 4
  ret i32 %14
}

; Function Attrs: mustprogress nounwind uwtable
define linkonce_odr hidden noundef i32 @_ZNK5XPage12live_objectsEv(ptr noundef nonnull align 8 dereferenceable(136) %0) #1 comdat align 2 {
  %2 = alloca ptr, align 8
  store ptr %0, ptr %2, align 8
  %3 = load ptr, ptr %2, align 8
  %4 = getelementptr inbounds %class.XPage, ptr %3, i32 0, i32 5
  %5 = call noundef i32 @_ZNK8XLiveMap12live_objectsEv(ptr noundef nonnull align 8 dereferenceable(64) %4)
  ret i32 %5
}

; Function Attrs: mustprogress nounwind uwtable
define linkonce_odr hidden noundef i64 @_ZNK8XLiveMap10live_bytesEv(ptr noundef nonnull align 8 dereferenceable(64) %0) #1 comdat align 2 {
  %2 = alloca ptr, align 8
  store ptr %0, ptr %2, align 8
  %3 = load ptr, ptr %2, align 8
  %4 = getelementptr inbounds %class.XLiveMap, ptr %3, i32 0, i32 2
  %5 = load volatile i64, ptr %4, align 8
  ret i64 %5
}

; Function Attrs: mustprogress nounwind uwtable
define linkonce_odr hidden void @_ZN17GrowableArrayBase8trunc_toEi(ptr noundef nonnull align 4 dereferenceable(8) %0, i32 noundef %1) #1 comdat align 2 {
  %3 = alloca ptr, align 8
  %4 = alloca i32, align 4
  store ptr %0, ptr %3, align 8
  store i32 %1, ptr %4, align 4
  %5 = load ptr, ptr %3, align 8
  %6 = load i32, ptr %4, align 4
  %7 = getelementptr inbounds %class.GrowableArrayBase, ptr %5, i32 0, i32 0
  store i32 %6, ptr %7, align 4
  ret void
}

; Function Attrs: mustprogress nounwind uwtable
define linkonce_odr hidden noundef zeroext i1 @_ZN7LogImplILN6LogTag4typeE49ELS1_129ELS1_0ELS1_0ELS1_0ELS1_0EE8is_levelEN8LogLevel4typeE(i32 noundef %0) #1 comdat align 2 {
  %2 = alloca i32, align 4
  store i32 %0, ptr %2, align 4
  %3 = call noundef nonnull align 8 dereferenceable(112) ptr @_ZN16LogTagSetMappingILN6LogTag4typeE49ELS1_129ELS1_0ELS1_0ELS1_0ELS1_0EE6tagsetEv()
  %4 = load i32, ptr %2, align 4
  %5 = call noundef zeroext i1 @_ZNK9LogTagSet8is_levelEN8LogLevel4typeE(ptr noundef nonnull align 8 dereferenceable(112) %3, i32 noundef %4)
  ret i1 %5
}

; Function Attrs: mustprogress nounwind uwtable
define linkonce_odr hidden noundef double @_Z10percent_ofIiEdT_S0_(i32 noundef %0, i32 noundef %1) #1 comdat {
  %3 = alloca i32, align 4
  %4 = alloca i32, align 4
  store i32 %0, ptr %3, align 4
  store i32 %1, ptr %4, align 4
  %5 = load i32, ptr %4, align 4
  %6 = icmp ne i32 %5, 0
  br i1 %6, label %7, label %14

7:                                                ; preds = %2
  %8 = load i32, ptr %3, align 4
  %9 = sitofp i32 %8 to double
  %10 = load i32, ptr %4, align 4
  %11 = sitofp i32 %10 to double
  %12 = fdiv double %9, %11
  %13 = fmul double %12, 1.000000e+02
  br label %15

14:                                               ; preds = %2
  br label %15

15:                                               ; preds = %14, %7
  %16 = phi double [ %13, %7 ], [ 0.000000e+00, %14 ]
  ret double %16
}

; Function Attrs: mustprogress nounwind uwtable
define linkonce_odr hidden noundef i32 @_ZN11XForwarding8nentriesEPK5XPage(ptr noundef %0) #1 comdat align 2 {
  %2 = alloca ptr, align 8
  store ptr %0, ptr %2, align 8
  %3 = load ptr, ptr %2, align 8
  %4 = call noundef i32 @_ZNK5XPage12live_objectsEv(ptr noundef nonnull align 8 dereferenceable(136) %3)
  %5 = mul i32 %4, 2
  %6 = call noundef i32 @_Z19round_up_power_of_2IjTnNSt9enable_ifIXcvbsr3std11is_integralIT_EE5valueEiE4typeELi0EES1_S1_(i32 noundef %5)
  ret i32 %6
}

; Function Attrs: mustprogress nounwind uwtable
define linkonce_odr hidden noundef i64 @_ZNK5XPage10live_bytesEv(ptr noundef nonnull align 8 dereferenceable(136) %0) #1 comdat align 2 {
  %2 = alloca ptr, align 8
  store ptr %0, ptr %2, align 8
  %3 = load ptr, ptr %2, align 8
  %4 = getelementptr inbounds %class.XPage, ptr %3, i32 0, i32 5
  %5 = call noundef i64 @_ZNK8XLiveMap10live_bytesEv(ptr noundef nonnull align 8 dereferenceable(64) %4)
  ret i64 %5
}

; Function Attrs: mustprogress nounwind uwtable
define linkonce_odr hidden noundef nonnull align 8 dereferenceable(8) ptr @_ZN17GrowableArrayViewIP5XPageE2atEi(ptr noundef nonnull align 8 dereferenceable(16) %0, i32 noundef %1) #1 comdat align 2 {
  %3 = alloca ptr, align 8
  %4 = alloca i32, align 4
  store ptr %0, ptr %3, align 8
  store i32 %1, ptr %4, align 4
  %5 = load ptr, ptr %3, align 8
  %6 = getelementptr inbounds %class.GrowableArrayView, ptr %5, i32 0, i32 1
  %7 = load ptr, ptr %6, align 8
  %8 = load i32, ptr %4, align 4
  %9 = sext i32 %8 to i64
  %10 = getelementptr inbounds ptr, ptr %7, i64 %9
  ret ptr %10
}

; Function Attrs: mustprogress nounwind uwtable
define linkonce_odr hidden noundef i32 @_ZNK17GrowableArrayBase6lengthEv(ptr noundef nonnull align 4 dereferenceable(8) %0) #1 comdat align 2 {
  %2 = alloca ptr, align 8
  store ptr %0, ptr %2, align 8
  %3 = load ptr, ptr %2, align 8
  %4 = getelementptr inbounds %class.GrowableArrayBase, ptr %3, i32 0, i32 0
  %5 = load i32, ptr %4, align 4
  ret i32 %5
}

; Function Attrs: mustprogress nounwind uwtable
define hidden void @_ZN27XRelocationSetSelectorGroup12select_innerEv(ptr noundef nonnull align 8 dereferenceable(112) %0) #1 align 2 {
  %2 = alloca ptr, align 8
  %3 = alloca i32, align 4
  %4 = alloca i32, align 4
  %5 = alloca i32, align 4
  %6 = alloca i64, align 8
  %7 = alloca i64, align 8
  %8 = alloca i64, align 8
  %9 = alloca i64, align 8
  %10 = alloca i64, align 8
  %11 = alloca i32, align 4
  %12 = alloca ptr, align 8
  %13 = alloca i32, align 4
  %14 = alloca i32, align 4
  %15 = alloca i32, align 4
  %16 = alloca double, align 8
  store ptr %0, ptr %2, align 8
  %17 = load ptr, ptr %2, align 8
  %18 = getelementptr inbounds %class.XRelocationSetSelectorGroup, ptr %17, i32 0, i32 5
  %19 = call noundef i32 @_ZNK17GrowableArrayBase6lengthEv(ptr noundef nonnull align 4 dereferenceable(8) %18)
  store i32 %19, ptr %3, align 4
  store i32 0, ptr %4, align 4
  store i32 0, ptr %5, align 4
  store i64 0, ptr %6, align 8
  store i64 0, ptr %7, align 8
  store i64 0, ptr %8, align 8
  store i64 0, ptr %9, align 8
  store i64 0, ptr %10, align 8
  call void @_ZN27XRelocationSetSelectorGroup9semi_sortEv(ptr noundef nonnull align 8 dereferenceable(112) %17)
  store i32 1, ptr %11, align 4
  br label %20

20:                                               ; preds = %89, %1
  %21 = load i32, ptr %11, align 4
  %22 = load i32, ptr %3, align 4
  %23 = icmp sle i32 %21, %22
  br i1 %23, label %24, label %92

24:                                               ; preds = %20
  %25 = getelementptr inbounds %class.XRelocationSetSelectorGroup, ptr %17, i32 0, i32 5
  %26 = load i32, ptr %11, align 4
  %27 = sub nsw i32 %26, 1
  %28 = call noundef nonnull align 8 dereferenceable(8) ptr @_ZN17GrowableArrayViewIP5XPageE2atEi(ptr noundef nonnull align 8 dereferenceable(16) %25, i32 noundef %27)
  %29 = load ptr, ptr %28, align 8
  store ptr %29, ptr %12, align 8
  %30 = load ptr, ptr %12, align 8
  %31 = call noundef i64 @_ZNK5XPage10live_bytesEv(ptr noundef nonnull align 8 dereferenceable(136) %30)
  %32 = load i64, ptr %9, align 8
  %33 = add i64 %32, %31
  store i64 %33, ptr %9, align 8
  %34 = load ptr, ptr %12, align 8
  %35 = call noundef i32 @_ZN11XForwarding8nentriesEPK5XPage(ptr noundef %34)
  %36 = zext i32 %35 to i64
  %37 = load i64, ptr %10, align 8
  %38 = add i64 %37, %36
  store i64 %38, ptr %10, align 8
  %39 = load i64, ptr %9, align 8
  %40 = uitofp i64 %39 to double
  %41 = getelementptr inbounds %class.XRelocationSetSelectorGroup, ptr %17, i32 0, i32 2
  %42 = load i64, ptr %41, align 8
  %43 = getelementptr inbounds %class.XRelocationSetSelectorGroup, ptr %17, i32 0, i32 3
  %44 = load i64, ptr %43, align 8
  %45 = sub i64 %42, %44
  %46 = uitofp i64 %45 to double
  %47 = fdiv double %40, %46
  %48 = call double @llvm.ceil.f64(double %47)
  %49 = fptosi double %48 to i32
  store i32 %49, ptr %13, align 4
  %50 = load i32, ptr %11, align 4
  %51 = load i32, ptr %4, align 4
  %52 = sub nsw i32 %50, %51
  store i32 %52, ptr %14, align 4
  %53 = load i32, ptr %13, align 4
  %54 = load i32, ptr %5, align 4
  %55 = sub nsw i32 %53, %54
  store i32 %55, ptr %15, align 4
  %56 = load i32, ptr %15, align 4
  %57 = load i32, ptr %14, align 4
  %58 = call noundef double @_Z10percent_ofIiEdT_S0_(i32 noundef %56, i32 noundef %57)
  %59 = fsub double 1.000000e+02, %58
  store double %59, ptr %16, align 8
  %60 = load double, ptr %16, align 8
  %61 = load double, ptr @ZFragmentationLimit, align 8
  %62 = fcmp ogt double %60, %61
  br i1 %62, label %63, label %70

63:                                               ; preds = %24
  %64 = load i32, ptr %11, align 4
  store i32 %64, ptr %4, align 4
  %65 = load i32, ptr %13, align 4
  store i32 %65, ptr %5, align 4
  %66 = load i64, ptr %9, align 8
  store i64 %66, ptr %7, align 8
  %67 = load i64, ptr %6, align 8
  %68 = add i64 %67, 1
  store i64 %68, ptr %6, align 8
  %69 = load i64, ptr %10, align 8
  store i64 %69, ptr %8, align 8
  br label %70

70:                                               ; preds = %63, %24
  %71 = call noundef zeroext i1 @_ZN7LogImplILN6LogTag4typeE49ELS1_129ELS1_0ELS1_0ELS1_0ELS1_0EE8is_levelEN8LogLevel4typeE(i32 noundef 1)
  br i1 %71, label %73, label %72

72:                                               ; preds = %70
  br label %88

73:                                               ; preds = %70
  %74 = getelementptr inbounds %class.XRelocationSetSelectorGroup, ptr %17, i32 0, i32 0
  %75 = load ptr, ptr %74, align 8
  %76 = load i32, ptr %11, align 4
  %77 = load i32, ptr %13, align 4
  %78 = load double, ptr %16, align 8
  %79 = load i64, ptr %10, align 8
  %80 = load i32, ptr %4, align 4
  %81 = load i32, ptr %11, align 4
  %82 = icmp eq i32 %80, %81
  br i1 %82, label %83, label %84

83:                                               ; preds = %73
  br label %85

84:                                               ; preds = %73
  br label %85

85:                                               ; preds = %84, %83
  %86 = phi ptr [ @.str.4, %83 ], [ @.str.5, %84 ]
  %87 = getelementptr inbounds [9 x i8], ptr %86, i64 0, i64 0
  call void (ptr, ...) @_ZN7LogImplILN6LogTag4typeE49ELS1_129ELS1_0ELS1_0ELS1_0ELS1_0EE5writeILN8LogLevel4typeE1EEEvPKcz(ptr noundef @.str, ptr noundef %75, i32 noundef %76, i32 noundef %77, double noundef %78, i64 noundef %79, ptr noundef %87)
  br label %88

88:                                               ; preds = %85, %72
  br label %89

89:                                               ; preds = %88
  %90 = load i32, ptr %11, align 4
  %91 = add nsw i32 %90, 1
  store i32 %91, ptr %11, align 4
  br label %20, !llvm.loop !10

92:                                               ; preds = %20
  %93 = getelementptr inbounds %class.XRelocationSetSelectorGroup, ptr %17, i32 0, i32 5
  %94 = load i32, ptr %4, align 4
  call void @_ZN17GrowableArrayBase8trunc_toEi(ptr noundef nonnull align 4 dereferenceable(8) %93, i32 noundef %94)
  %95 = load i64, ptr %8, align 8
  %96 = getelementptr inbounds %class.XRelocationSetSelectorGroup, ptr %17, i32 0, i32 6
  store i64 %95, ptr %96, align 8
  %97 = load i64, ptr %7, align 8
  %98 = getelementptr inbounds %class.XRelocationSetSelectorGroup, ptr %17, i32 0, i32 7
  %99 = getelementptr inbounds %class.XRelocationSetSelectorGroupStats, ptr %98, i32 0, i32 5
  store i64 %97, ptr %99, align 8
  %100 = load i64, ptr %6, align 8
  %101 = getelementptr inbounds %class.XRelocationSetSelectorGroup, ptr %17, i32 0, i32 7
  %102 = getelementptr inbounds %class.XRelocationSetSelectorGroupStats, ptr %101, i32 0, i32 4
  store i64 %100, ptr %102, align 8
  %103 = call noundef zeroext i1 @_ZN7LogImplILN6LogTag4typeE49ELS1_129ELS1_0ELS1_0ELS1_0ELS1_0EE8is_levelEN8LogLevel4typeE(i32 noundef 1)
  br i1 %103, label %105, label %104

104:                                              ; preds = %92
  br label %114

105:                                              ; preds = %92
  %106 = getelementptr inbounds %class.XRelocationSetSelectorGroup, ptr %17, i32 0, i32 0
  %107 = load ptr, ptr %106, align 8
  %108 = load i32, ptr %4, align 4
  %109 = load i32, ptr %5, align 4
  %110 = load i32, ptr %3, align 4
  %111 = load i32, ptr %4, align 4
  %112 = sub nsw i32 %110, %111
  %113 = load i64, ptr %8, align 8
  call void (ptr, ...) @_ZN7LogImplILN6LogTag4typeE49ELS1_129ELS1_0ELS1_0ELS1_0ELS1_0EE5writeILN8LogLevel4typeE1EEEvPKcz(ptr noundef @.str.6, ptr noundef %107, i32 noundef %108, i32 noundef %109, i32 noundef %112, i64 noundef %113)
  br label %114

114:                                              ; preds = %105, %104
  ret void
}