; Function Attrs: mustprogress nounwind uwtable
define hidden void @_ZN27XRelocationSetSelectorGroup12select_innerEv(ptr nocapture noundef nonnull align 8 dereferenceable(112) %0) local_unnamed_addr #3 align 2 {
  %2 = getelementptr inbounds i8, ptr %0, i64 40
  %3 = load i32, ptr %2, align 8
  tail call void @_ZN27XRelocationSetSelectorGroup9semi_sortEv(ptr noundef nonnull align 8 dereferenceable(112) %0)
  %.not50 = icmp slt i32 %3, 1
  br i1 %.not50, label %._crit_edge, label %.lr.ph

.lr.ph:                                           ; preds = %1
  %4 = getelementptr inbounds i8, ptr %0, i64 48
  %5 = getelementptr inbounds i8, ptr %0, i64 16
  %6 = getelementptr inbounds i8, ptr %0, i64 24
  %7 = add nuw i32 %3, 1
  %wide.trip.count = zext i32 %7 to i64
  %.pre64 = load double, ptr @ZFragmentationLimit, align 8
  br label %8

8:                                                ; preds = %.lr.ph, %53
  %9 = phi double [ %.pre64, %.lr.ph ], [ %54, %53 ]
  %indvars.iv = phi i64 [ 1, %.lr.ph ], [ %indvars.iv.next, %53 ]
  %.058 = phi i32 [ 0, %.lr.ph ], [ %.1, %53 ]
  %.03657 = phi i32 [ 0, %.lr.ph ], [ %.137, %53 ]
  %.03856 = phi i64 [ 0, %.lr.ph ], [ %.139, %53 ]
  %.04055 = phi i64 [ 0, %.lr.ph ], [ %.141, %53 ]
  %.04254 = phi i64 [ 0, %.lr.ph ], [ %.143, %53 ]
  %.04552 = phi i64 [ 0, %.lr.ph ], [ %25, %53 ]
  %.04651 = phi i64 [ 0, %.lr.ph ], [ %16, %53 ]
  %10 = load ptr, ptr %4, align 8
  %11 = getelementptr ptr, ptr %10, i64 %indvars.iv
  %12 = getelementptr i8, ptr %11, i64 -8
  %13 = load ptr, ptr %12, align 8
  %14 = getelementptr inbounds i8, ptr %13, i64 40
  %15 = load volatile i64, ptr %14, align 8
  %16 = add i64 %15, %.04651
  %17 = getelementptr inbounds i8, ptr %13, i64 36
  %18 = load volatile i32, ptr %17, align 4
  %19 = shl i32 %18, 1
  %20 = tail call range(i32 0, 33) i32 @llvm.ctpop.i32(i32 %19)
  %or.cond.i.i = icmp eq i32 %20, 1
  %21 = tail call range(i32 0, 33) i32 @llvm.ctlz.i32(i32 %19, i1 true)
  %22 = sub nuw nsw i32 32, %21
  %23 = shl nuw i32 1, %22
  %.0.i.i = select i1 %or.cond.i.i, i32 %19, i32 %23
  %24 = zext i32 %.0.i.i to i64
  %25 = add i64 %.04552, %24
  %26 = uitofp i64 %16 to double
  %27 = load i64, ptr %5, align 8
  %28 = load i64, ptr %6, align 8
  %29 = sub i64 %27, %28
  %30 = uitofp i64 %29 to double
  %31 = fdiv double %26, %30
  %32 = tail call double @llvm.ceil.f64(double %31)
  %33 = fptosi double %32 to i32
  %34 = trunc nuw nsw i64 %indvars.iv to i32
  %35 = sub nsw i32 %34, %.058
  %36 = sub nsw i32 %33, %.03657
  %37 = zext i32 %.058 to i64
  %.not.i = icmp eq i64 %indvars.iv, %37
  %38 = sitofp i32 %36 to double
  %39 = sitofp i32 %35 to double
  %40 = fdiv double %38, %39
  %41 = fmul double %40, 1.000000e+02
  %42 = fsub double 1.000000e+02, %41
  %43 = select i1 %.not.i, double 1.000000e+02, double %42
  %44 = fcmp ogt double %43, %9
  br i1 %44, label %45, label %47

45:                                               ; preds = %8
  %46 = add i64 %.03856, 1
  br label %47

47:                                               ; preds = %45, %8
  %.143 = phi i64 [ %25, %45 ], [ %.04254, %8 ]
  %.141 = phi i64 [ %16, %45 ], [ %.04055, %8 ]
  %.139 = phi i64 [ %46, %45 ], [ %.03856, %8 ]
  %.137 = phi i32 [ %33, %45 ], [ %.03657, %8 ]
  %.1 = phi i32 [ %34, %45 ], [ %.058, %8 ]
  %48 = load volatile ptr, ptr getelementptr inbounds (i8, ptr @_ZN16LogTagSetMappingILN6LogTag4typeE49ELS1_129ELS1_0ELS1_0ELS1_0ELS1_0EE7_tagsetE, i64 48), align 8
  %.not48 = icmp eq ptr %48, null
  br i1 %.not48, label %53, label %49

49:                                               ; preds = %47
  %50 = load ptr, ptr %0, align 8
  %51 = zext i32 %.1 to i64
  %52 = icmp eq i64 %indvars.iv, %51
  %.str.4..str.5 = select i1 %52, ptr @.str.4, ptr @.str.5
  tail call void (ptr, ...) @_ZN7LogImplILN6LogTag4typeE49ELS1_129ELS1_0ELS1_0ELS1_0ELS1_0EE5writeILN8LogLevel4typeE1EEEvPKcz(ptr noundef nonnull @.str, ptr noundef %50, i32 noundef %34, i32 noundef %33, double noundef %43, i64 noundef %25, ptr noundef nonnull %.str.4..str.5)
  %.pre = load double, ptr @ZFragmentationLimit, align 8
  br label %53

53:                                               ; preds = %49, %47
  %54 = phi double [ %.pre, %49 ], [ %9, %47 ]
  %indvars.iv.next = add nuw nsw i64 %indvars.iv, 1
  %exitcond.not = icmp eq i64 %indvars.iv.next, %wide.trip.count
  br i1 %exitcond.not, label %._crit_edge, label %8, !llvm.loop !10

._crit_edge:                                      ; preds = %53, %1
  %.042.lcssa = phi i64 [ 0, %1 ], [ %.143, %53 ]
  %.040.lcssa = phi i64 [ 0, %1 ], [ %.141, %53 ]
  %.038.lcssa = phi i64 [ 0, %1 ], [ %.139, %53 ]
  %.036.lcssa = phi i32 [ 0, %1 ], [ %.137, %53 ]
  %.0.lcssa = phi i32 [ 0, %1 ], [ %.1, %53 ]
  store i32 %.0.lcssa, ptr %2, align 8
  %55 = getelementptr inbounds i8, ptr %0, i64 56
  store i64 %.042.lcssa, ptr %55, align 8
  %56 = getelementptr inbounds i8, ptr %0, i64 104
  store i64 %.040.lcssa, ptr %56, align 8
  %57 = getelementptr inbounds i8, ptr %0, i64 96
  store i64 %.038.lcssa, ptr %57, align 8
  %58 = load volatile ptr, ptr getelementptr inbounds (i8, ptr @_ZN16LogTagSetMappingILN6LogTag4typeE49ELS1_129ELS1_0ELS1_0ELS1_0ELS1_0EE7_tagsetE, i64 48), align 8
  %.not49 = icmp eq ptr %58, null
  br i1 %.not49, label %62, label %59

59:                                               ; preds = %._crit_edge
  %60 = load ptr, ptr %0, align 8
  %61 = sub nsw i32 %3, %.0.lcssa
  tail call void (ptr, ...) @_ZN7LogImplILN6LogTag4typeE49ELS1_129ELS1_0ELS1_0ELS1_0ELS1_0EE5writeILN8LogLevel4typeE1EEEvPKcz(ptr noundef nonnull @.str.6, ptr noundef %60, i32 noundef %.0.lcssa, i32 noundef %.036.lcssa, i32 noundef %61, i64 noundef %.042.lcssa)
  br label %62

62:                                               ; preds = %._crit_edge, %59
  ret void
}